target datalayout = "e-m:e-p270:32:32-p271:32:32-p272:64:64-i64:64-i128:128-f80:128-n8:16:32:64-S128"
target triple = "x86_64-pc-linux-gnu"

%struct.evthread_lock_callbacks = type { i32, i32, ptr, ptr, ptr, ptr }
%struct.evbuffer = type { ptr, ptr, ptr, i64, i64, i64, i64, ptr, i8, i32, ptr, i32, %struct.event_callback, %struct.evbuffer_cb_queue, ptr }
%struct.event_callback = type { %struct.anon, i16, i8, i8, %union.anon, ptr }
%struct.anon = type { ptr, ptr }
%union.anon = type { ptr }
%struct.evbuffer_cb_queue = type { ptr }

@evthread_lock_fns_ = external global %struct.evthread_lock_callbacks, align 8

; Function Attrs: nounwind uwtable
define i32 @evbuffer_clear_flags(ptr noundef %0, i64 noundef %1) #0 {
  %3 = alloca ptr, align 8
  %4 = alloca i64, align 8
  store ptr %0, ptr %3, align 8
  store i64 %1, ptr %4, align 8
  br label %5

5:                                                ; preds = %2
  br label %6

6:                                                ; preds = %5
  %7 = load ptr, ptr %3, align 8
  %8 = getelementptr inbounds nuw %struct.evbuffer, ptr %7, i32 0, i32 7
  %9 = load ptr, ptr %8, align 8
  %10 = icmp ne ptr %9, null
  br i1 %10, label %11, label %17

11:                                               ; preds = %6
  %12 = load ptr, ptr getelementptr inbounds nuw (%struct.evthread_lock_callbacks, ptr @evthread_lock_fns_, i32 0, i32 4), align 8
  %13 = load ptr, ptr %3, align 8
  %14 = getelementptr inbounds nuw %struct.evbuffer, ptr %13, i32 0, i32 7
  %15 = load ptr, ptr %14, align 8
  %16 = call i32 %12(i32 noundef 0, ptr noundef %15)
  br label %17

17:                                               ; preds = %11, %6
  br label %18

18:                                               ; preds = %17
  br label %19

19:                                               ; preds = %18
  %20 = load i64, ptr %4, align 8
  %21 = trunc i64 %20 to i32
  %22 = xor i32 %21, -1
  %23 = load ptr, ptr %3, align 8
  %24 = getelementptr inbounds nuw %struct.evbuffer, ptr %23, i32 0, i32 9
  %25 = load i32, ptr %24, align 4
  %26 = and i32 %25, %22
  store i32 %26, ptr %24, align 4
  br label %27

27:                                               ; preds = %19
  br label %28

28:                                               ; preds = %27
  %29 = load ptr, ptr %3, align 8
  %30 = getelementptr inbounds nuw %struct.evbuffer, ptr %29, i32 0, i32 7
  %31 = load ptr, ptr %30, align 8
  %32 = icmp ne ptr %31, null
  br i1 %32, label %33, label %39

33:                                               ; preds = %28
  %34 = load ptr, ptr getelementptr inbounds nuw (%struct.evthread_lock_callbacks, ptr @evthread_lock_fns_, i32 0, i32 5), align 8
  %35 = load ptr, ptr %3, align 8
  %36 = getelementptr inbounds nuw %struct.evbuffer, ptr %35, i32 0, i32 7
  %37 = load ptr, ptr %36, align 8
  %38 = call i32 %34(i32 noundef 0, ptr noundef %37)
  br label %39

39:                                               ; preds = %33, %28
  br label %40

40:                                               ; preds = %39
  br label %41

41:                                               ; preds = %40
  ret i32 0
}