; Function Attrs: nounwind uwtable
define noundef i32 @evbuffer_clear_flags(ptr noundef captures(none) %0, i64 noundef %1) local_unnamed_addr #1 {
  %3 = getelementptr inbounds nuw i8, ptr %0, i64 56
  %4 = load ptr, ptr %3, align 8
  %.not = icmp eq ptr %4, null
  br i1 %.not, label %.thread, label %10

.thread:                                          ; preds = %2
  %5 = trunc i64 %1 to i32
  %6 = xor i32 %5, -1
  %7 = getelementptr inbounds nuw i8, ptr %0, i64 68
  %8 = load i32, ptr %7, align 4
  %9 = and i32 %8, %6
  store i32 %9, ptr %7, align 4
  br label %21

10:                                               ; preds = %2
  %11 = load ptr, ptr getelementptr inbounds nuw (i8, ptr @evthread_lock_fns_, i64 24), align 8
  %12 = tail call i32 %11(i32 noundef 0, ptr noundef nonnull %4) #16
  %.pr = load ptr, ptr %3, align 8
  %13 = trunc i64 %1 to i32
  %14 = xor i32 %13, -1
  %15 = getelementptr inbounds nuw i8, ptr %0, i64 68
  %16 = load i32, ptr %15, align 4
  %17 = and i32 %16, %14
  store i32 %17, ptr %15, align 4
  %.not6 = icmp eq ptr %.pr, null
  br i1 %.not6, label %21, label %18

18:                                               ; preds = %10
  %19 = load ptr, ptr getelementptr inbounds nuw (i8, ptr @evthread_lock_fns_, i64 32), align 8
  %20 = tail call i32 %19(i32 noundef 0, ptr noundef nonnull %.pr) #16
  br label %21

21:                                               ; preds = %.thread, %18, %10
  ret i32 0
}